; Function Attrs: mustprogress uwtable
define internal void @"_ZN4absl12lts_2023080222internal_any_invocable12LocalInvokerILb0EvRZN17grpc_event_engine12experimental12AsyncConnect5StartENSt6chrono8durationIlSt5ratioILl1ELl1000000000EEEEE3$_0JNS0_6StatusEEEET0_PNS1_15TypeErasedStateEDpNS1_18ForwardedParameterIT2_E4typeE"(ptr nocapture noundef readonly %state, ptr nocapture noundef nonnull align 8 dereferenceable(8) %args) #3 personality ptr @__gxx_personality_v0 {
entry:
  %agg.tmp.i.i.i.i.i = alloca %"class.absl::lts_20230802::Status", align 8
  %agg.tmp.i.i.i.i = alloca %"class.absl::lts_20230802::Status", align 8
  call void @llvm.lifetime.start.p0(i64 8, ptr nonnull %agg.tmp.i.i.i.i)
  %0 = load i64, ptr %args, align 8
  store i64 54, ptr %args, align 8
  %__f.val.i.i.i.i = load ptr, ptr %state, align 8
  call void @llvm.lifetime.start.p0(i64 8, ptr nonnull %agg.tmp.i.i.i.i.i)
  store i64 %0, ptr %agg.tmp.i.i.i.i.i, align 8
  store i64 54, ptr %agg.tmp.i.i.i.i, align 8
  invoke void @_ZN17grpc_event_engine12experimental12AsyncConnect10OnWritableEN4absl12lts_202308026StatusE(ptr noundef nonnull align 16 dereferenceable(233) %__f.val.i.i.i.i, ptr noundef nonnull %agg.tmp.i.i.i.i.i)
          to label %invoke.cont.i.i.i.i.i unwind label %lpad.i.i.i.i.i

invoke.cont.i.i.i.i.i:                            ; preds = %entry
  %1 = load i64, ptr %agg.tmp.i.i.i.i.i, align 8
  %and.i.i.i.i.i.i.i.i = and i64 %1, 1
  %cmp.i.i.i.i.i.i.i.i = icmp eq i64 %and.i.i.i.i.i.i.i.i, 0
  br i1 %cmp.i.i.i.i.i.i.i.i, label %"_ZN4absl12lts_2023080222internal_any_invocable7InvokeRIvRZN17grpc_event_engine12experimental12AsyncConnect5StartENSt6chrono8durationIlSt5ratioILl1ELl1000000000EEEEE3$_0JNS0_6StatusEEvEEvOT0_DpOT1_.exit", label %if.then.i.i.i.i.i.i.i

if.then.i.i.i.i.i.i.i:                            ; preds = %invoke.cont.i.i.i.i.i
  invoke void @_ZN4absl12lts_202308026Status15UnrefNonInlinedEm(i64 noundef %1)
          to label %"_ZN4absl12lts_2023080222internal_any_invocable7InvokeRIvRZN17grpc_event_engine12experimental12AsyncConnect5StartENSt6chrono8durationIlSt5ratioILl1ELl1000000000EEEEE3$_0JNS0_6StatusEEvEEvOT0_DpOT1_.exit" unwind label %terminate.lpad.i.i.i.i.i.i

terminate.lpad.i.i.i.i.i.i:                       ; preds = %if.then.i.i.i.i.i.i.i
  %2 = landingpad { ptr, i32 }
          catch ptr null
  %3 = extractvalue { ptr, i32 } %2, 0
  call void @__clang_call_terminate(ptr %3) #27
  unreachable

lpad.i.i.i.i.i:                                   ; preds = %entry
  %4 = landingpad { ptr, i32 }
          cleanup
  call void @_ZN4absl12lts_202308026StatusD2Ev(ptr noundef nonnull align 8 dereferenceable(8) %agg.tmp.i.i.i.i.i) #26
  call void @_ZN4absl12lts_202308026StatusD2Ev(ptr noundef nonnull align 8 dereferenceable(8) %agg.tmp.i.i.i.i) #26
  resume { ptr, i32 } %4

"_ZN4absl12lts_2023080222internal_any_invocable7InvokeRIvRZN17grpc_event_engine12experimental12AsyncConnect5StartENSt6chrono8durationIlSt5ratioILl1ELl1000000000EEEEE3$_0JNS0_6StatusEEvEEvOT0_DpOT1_.exit": ; preds = %invoke.cont.i.i.i.i.i, %if.then.i.i.i.i.i.i.i
  call void @llvm.lifetime.end.p0(i64 8, ptr nonnull %agg.tmp.i.i.i.i.i)
  call void @llvm.lifetime.end.p0(i64 8, ptr nonnull %agg.tmp.i.i.i.i)
  ret void
}